; ModuleID = '52/1887.c'
source_filename = "52/1887.c"
target datalayout = "e-m:e-p270:32:32-p271:32:32-p272:64:64-i64:64-f80:128-n8:16:32:64-S128"
target triple = "x86_64-pc-linux-gnu"

@.str = private unnamed_addr constant [5 x i8] c"%d%d\00", align 1
@.str.1 = private unnamed_addr constant [3 x i8] c"%d\00", align 1
@.str.2 = private unnamed_addr constant [4 x i8] c"%d \00", align 1

; Function Attrs: noinline nounwind uwtable
define dso_local void @main() #0 {
  %1 = alloca i32, align 4
  %2 = alloca i32, align 4
  %3 = alloca i32, align 4
  %4 = alloca [200 x i32], align 16
  %5 = alloca i32*, align 8
  %6 = getelementptr inbounds [200 x i32], [200 x i32]* %4, i64 0, i64 0
  store i32* %6, i32** %5, align 8
  %7 = call i32 (i8*, ...) @__isoc99_scanf(i8* getelementptr inbounds ([5 x i8], [5 x i8]* @.str, i64 0, i64 0), i32* %2, i32* %1)
  %8 = load i32*, i32** %5, align 8
  %9 = load i32, i32* %1, align 4
  %10 = sext i32 %9 to i64
  %11 = getelementptr inbounds i32, i32* %8, i64 %10
  store i32* %11, i32** %5, align 8
  store i32 1, i32* %3, align 4
  br label %12

12:                                               ; preds = %23, %0
  %13 = load i32, i32* %3, align 4
  %14 = load i32, i32* %2, align 4
  %15 = load i32, i32* %1, align 4
  %16 = sub nsw i32 %14, %15
  %17 = icmp sle i32 %13, %16
  br i1 %17, label %18, label %26

18:                                               ; preds = %12
  %19 = load i32*, i32** %5, align 8
  %20 = call i32 (i8*, ...) @__isoc99_scanf(i8* getelementptr inbounds ([3 x i8], [3 x i8]* @.str.1, i64 0, i64 0), i32* %19)
  %21 = load i32*, i32** %5, align 8
  %22 = getelementptr inbounds i32, i32* %21, i32 1
  store i32* %22, i32** %5, align 8
  br label %23

23:                                               ; preds = %18
  %24 = load i32, i32* %3, align 4
  %25 = add nsw i32 %24, 1
  store i32 %25, i32* %3, align 4
  br label %12

26:                                               ; preds = %12
  %27 = getelementptr inbounds [200 x i32], [200 x i32]* %4, i64 0, i64 0
  store i32* %27, i32** %5, align 8
  store i32 1, i32* %3, align 4
  br label %28

28:                                               ; preds = %37, %26
  %29 = load i32, i32* %3, align 4
  %30 = load i32, i32* %1, align 4
  %31 = icmp sle i32 %29, %30
  br i1 %31, label %32, label %40

32:                                               ; preds = %28
  %33 = load i32*, i32** %5, align 8
  %34 = call i32 (i8*, ...) @__isoc99_scanf(i8* getelementptr inbounds ([3 x i8], [3 x i8]* @.str.1, i64 0, i64 0), i32* %33)
  %35 = load i32*, i32** %5, align 8
  %36 = getelementptr inbounds i32, i32* %35, i32 1
  store i32* %36, i32** %5, align 8
  br label %37

37:                                               ; preds = %32
  %38 = load i32, i32* %3, align 4
  %39 = add nsw i32 %38, 1
  store i32 %39, i32* %3, align 4
  br label %28

40:                                               ; preds = %28
  %41 = getelementptr inbounds [200 x i32], [200 x i32]* %4, i64 0, i64 0
  store i32* %41, i32** %5, align 8
  store i32 0, i32* %3, align 4
  br label %42

42:                                               ; preds = %53, %40
  %43 = load i32, i32* %3, align 4
  %44 = load i32, i32* %2, align 4
  %45 = sub nsw i32 %44, 2
  %46 = icmp sle i32 %43, %45
  br i1 %46, label %47, label %56

47:                                               ; preds = %42
  %48 = load i32*, i32** %5, align 8
  %49 = load i32, i32* %48, align 4
  %50 = call i32 (i8*, ...) @printf(i8* getelementptr inbounds ([4 x i8], [4 x i8]* @.str.2, i64 0, i64 0), i32 %49)
  %51 = load i32*, i32** %5, align 8
  %52 = getelementptr inbounds i32, i32* %51, i32 1
  store i32* %52, i32** %5, align 8
  br label %53

53:                                               ; preds = %47
  %54 = load i32, i32* %3, align 4
  %55 = add nsw i32 %54, 1
  store i32 %55, i32* %3, align 4
  br label %42

56:                                               ; preds = %42
  %57 = load i32*, i32** %5, align 8
  %58 = load i32, i32* %57, align 4
  %59 = call i32 (i8*, ...) @printf(i8* getelementptr inbounds ([3 x i8], [3 x i8]* @.str.1, i64 0, i64 0), i32 %58)
  ret void
}

declare dso_local i32 @__isoc99_scanf(i8*, ...) #1

declare dso_local i32 @printf(i8*, ...) #1


!llvm.module.flags = !{!0}
!llvm.ident = !{!1}

!0 = !{i32 1, !"wchar_size", i32 4}
!1 = !{!"clang version 10.0.0-4ubuntu1 "}
